; ModuleID = '1/31.c'
source_filename = "1/31.c"
target datalayout = "e-m:e-p270:32:32-p271:32:32-p272:64:64-i64:64-f80:128-n8:16:32:64-S128"
target triple = "x86_64-pc-linux-gnu"

@.str = private unnamed_addr constant [3 x i8] c"%d\00", align 1
@.str.1 = private unnamed_addr constant [4 x i8] c"%d\0A\00", align 1

; Function Attrs: noinline nounwind uwtable
define dso_local i32 @main() #0 {
  %1 = alloca i32, align 4
  %2 = alloca i32, align 4
  %3 = alloca i32, align 4
  %4 = alloca i32, align 4
  store i32 0, i32* %1, align 4
  %5 = call i32 (i8*, ...) @__isoc99_scanf(i8* getelementptr inbounds ([3 x i8], [3 x i8]* @.str, i64 0, i64 0), i32* %2)
  br label %6

6:                                                ; preds = %10, %0
  %7 = load i32, i32* %2, align 4
  %8 = add nsw i32 %7, -1
  store i32 %8, i32* %2, align 4
  %9 = icmp ne i32 %7, 0
  br i1 %9, label %10, label %16

10:                                               ; preds = %6
  %11 = call i32 (i8*, ...) @__isoc99_scanf(i8* getelementptr inbounds ([3 x i8], [3 x i8]* @.str, i64 0, i64 0), i32* %3)
  %12 = load i32, i32* %3, align 4
  %13 = call i32 @calc(i32 2, i32 %12)
  store i32 %13, i32* %4, align 4
  %14 = load i32, i32* %4, align 4
  %15 = call i32 (i8*, ...) @printf(i8* getelementptr inbounds ([4 x i8], [4 x i8]* @.str.1, i64 0, i64 0), i32 %14)
  br label %6

16:                                               ; preds = %6
  ret i32 0
}

declare dso_local i32 @__isoc99_scanf(i8*, ...) #1

; Function Attrs: noinline nounwind uwtable
define dso_local i32 @calc(i32 %0, i32 %1) #0 {
  %3 = alloca i32, align 4
  %4 = alloca i32, align 4
  %5 = alloca i32, align 4
  %6 = alloca i32, align 4
  store i32 %0, i32* %3, align 4
  store i32 %1, i32* %4, align 4
  store i32 1, i32* %6, align 4
  %7 = load i32, i32* %3, align 4
  store i32 %7, i32* %5, align 4
  br label %8

8:                                                ; preds = %29, %2
  %9 = load i32, i32* %5, align 4
  %10 = sitofp i32 %9 to double
  %11 = load i32, i32* %4, align 4
  %12 = sitofp i32 %11 to double
  %13 = call double @sqrt(double %12) #3
  %14 = fcmp ole double %10, %13
  br i1 %14, label %15, label %32

15:                                               ; preds = %8
  %16 = load i32, i32* %4, align 4
  %17 = load i32, i32* %5, align 4
  %18 = srem i32 %16, %17
  %19 = icmp eq i32 %18, 0
  br i1 %19, label %20, label %28

20:                                               ; preds = %15
  %21 = load i32, i32* %6, align 4
  %22 = load i32, i32* %5, align 4
  %23 = load i32, i32* %4, align 4
  %24 = load i32, i32* %5, align 4
  %25 = sdiv i32 %23, %24
  %26 = call i32 @calc(i32 %22, i32 %25)
  %27 = add nsw i32 %21, %26
  store i32 %27, i32* %6, align 4
  br label %28

28:                                               ; preds = %20, %15
  br label %29

29:                                               ; preds = %28
  %30 = load i32, i32* %5, align 4
  %31 = add nsw i32 %30, 1
  store i32 %31, i32* %5, align 4
  br label %8

32:                                               ; preds = %8
  %33 = load i32, i32* %6, align 4
  ret i32 %33
}

declare dso_local i32 @printf(i8*, ...) #1

; Function Attrs: nounwind
declare dso_local double @sqrt(double) #2


!llvm.module.flags = !{!0}
!llvm.ident = !{!1}

!0 = !{i32 1, !"wchar_size", i32 4}
!1 = !{!"clang version 10.0.0-4ubuntu1 "}
